target datalayout = "e-m:e-p270:32:32-p271:32:32-p272:64:64-i64:64-i128:128-f80:128-n8:16:32:64-S128"
target triple = "x86_64-pc-linux-gnu"

@.str = private unnamed_addr constant [98 x i8] c"generated/home/dtcxzyw/WorkSpace/Projects/compilers/llvm-opt-benchmark/bench/hdf5/hdf5/src/H5VL.c\00", align 1
@H5E_VOL_g = external global i64, align 8
@H5E_CANTREGISTER_g = external global i64, align 8
@H5E_BADVALUE_g = external global i64, align 8
@__func__.H5VLwrap_register = private unnamed_addr constant [18 x i8] c"H5VLwrap_register\00", align 1
@H5E_BADRANGE_g = external global i64, align 8
@.str.23 = private unnamed_addr constant [20 x i8] c"invalid type number\00", align 1
@.str.24 = private unnamed_addr constant [12 x i8] c"obj is NULL\00", align 1
@.str.25 = private unnamed_addr constant [22 x i8] c"unable to wrap object\00", align 1

; Function Attrs: nounwind uwtable
define i64 @H5VLwrap_register(ptr noundef %0, i32 noundef %1) #0 {
  %3 = alloca ptr, align 8
  %4 = alloca i32, align 4
  %5 = alloca i64, align 8
  %6 = alloca i8, align 1
  store ptr %0, ptr %3, align 8, !tbaa !28
  store i32 %1, ptr %4, align 4, !tbaa !18
  call void @llvm.lifetime.start.p0(i64 8, ptr %5) #6
  call void @llvm.lifetime.start.p0(i64 1, ptr %6) #6
  store i8 0, ptr %6, align 1, !tbaa !12
  %7 = load i32, ptr %4, align 4, !tbaa !18
  switch i32 %7, label %10 [
    i32 1, label %8
    i32 2, label %8
    i32 3, label %8
    i32 5, label %8
    i32 6, label %8
    i32 7, label %8
    i32 -2, label %9
    i32 -1, label %9
    i32 4, label %9
    i32 8, label %9
    i32 9, label %9
    i32 10, label %9
    i32 11, label %9
    i32 12, label %9
    i32 13, label %9
    i32 14, label %9
    i32 15, label %9
    i32 16, label %9
    i32 17, label %9
  ]

8:                                                ; preds = %2, %2, %2, %2, %2, %2
  br label %29

9:                                                ; preds = %2, %2, %2, %2, %2, %2, %2, %2, %2, %2, %2, %2, %2
  br label %10

10:                                               ; preds = %2, %9
  br label %11

11:                                               ; preds = %10
  br label %12

12:                                               ; preds = %11
  br label %13

13:                                               ; preds = %12
  %14 = load i64, ptr @H5E_VOL_g, align 8, !tbaa !8
  %15 = load i64, ptr @H5E_BADRANGE_g, align 8, !tbaa !8
  %16 = call i32 (ptr, ptr, i32, i64, i64, ptr, ...) @H5E_printf_stack(ptr noundef @.str, ptr noundef @__func__.H5VLwrap_register, i32 noundef 591, i64 noundef %14, i64 noundef %15, ptr noundef @.str.23)
  br label %17

17:                                               ; preds = %13
  br label %18

18:                                               ; preds = %17
  store i8 1, ptr %6, align 1, !tbaa !12
  %19 = load i8, ptr %6, align 1, !tbaa !12, !range !14, !noundef !15
  %20 = trunc i8 %19 to i1
  %21 = zext i1 %20 to i8
  store i8 %21, ptr %6, align 1, !tbaa !12
  br label %22

22:                                               ; preds = %18
  br label %23

23:                                               ; preds = %22
  br label %24

24:                                               ; preds = %23
  store i64 -1, ptr %5, align 8, !tbaa !8
  br label %76

25:                                               ; No predecessors!
  br label %26

26:                                               ; preds = %25
  br label %27

27:                                               ; preds = %26
  br label %28

28:                                               ; preds = %27
  br label %29

29:                                               ; preds = %28, %8
  %30 = load ptr, ptr %3, align 8, !tbaa !28
  %31 = icmp eq ptr null, %30
  br i1 %31, label %32, label %51

32:                                               ; preds = %29
  br label %33

33:                                               ; preds = %32
  br label %34

34:                                               ; preds = %33
  br label %35

35:                                               ; preds = %34
  %36 = load i64, ptr @H5E_VOL_g, align 8, !tbaa !8
  %37 = load i64, ptr @H5E_BADVALUE_g, align 8, !tbaa !8
  %38 = call i32 (ptr, ptr, i32, i64, i64, ptr, ...) @H5E_printf_stack(ptr noundef @.str, ptr noundef @__func__.H5VLwrap_register, i32 noundef 594, i64 noundef %36, i64 noundef %37, ptr noundef @.str.24)
  br label %39

39:                                               ; preds = %35
  br label %40

40:                                               ; preds = %39
  store i8 1, ptr %6, align 1, !tbaa !12
  %41 = load i8, ptr %6, align 1, !tbaa !12, !range !14, !noundef !15
  %42 = trunc i8 %41 to i1
  %43 = zext i1 %42 to i8
  store i8 %43, ptr %6, align 1, !tbaa !12
  br label %44

44:                                               ; preds = %40
  br label %45

45:                                               ; preds = %44
  br label %46

46:                                               ; preds = %45
  store i64 -1, ptr %5, align 8, !tbaa !8
  br label %76

47:                                               ; No predecessors!
  br label %48

48:                                               ; preds = %47
  br label %49

49:                                               ; preds = %48
  br label %50

50:                                               ; preds = %49
  br label %51

51:                                               ; preds = %50, %29
  %52 = load i32, ptr %4, align 4, !tbaa !18
  %53 = load ptr, ptr %3, align 8, !tbaa !28
  %54 = call i64 @H5VL_wrap_register(i32 noundef %52, ptr noundef %53, i1 noundef zeroext true)
  store i64 %54, ptr %5, align 8, !tbaa !8
  %55 = icmp slt i64 %54, 0
  br i1 %55, label %56, label %75

56:                                               ; preds = %51
  br label %57

57:                                               ; preds = %56
  br label %58

58:                                               ; preds = %57
  br label %59

59:                                               ; preds = %58
  %60 = load i64, ptr @H5E_VOL_g, align 8, !tbaa !8
  %61 = load i64, ptr @H5E_CANTREGISTER_g, align 8, !tbaa !8
  %62 = call i32 (ptr, ptr, i32, i64, i64, ptr, ...) @H5E_printf_stack(ptr noundef @.str, ptr noundef @__func__.H5VLwrap_register, i32 noundef 598, i64 noundef %60, i64 noundef %61, ptr noundef @.str.25)
  br label %63

63:                                               ; preds = %59
  br label %64

64:                                               ; preds = %63
  store i8 1, ptr %6, align 1, !tbaa !12
  %65 = load i8, ptr %6, align 1, !tbaa !12, !range !14, !noundef !15
  %66 = trunc i8 %65 to i1
  %67 = zext i1 %66 to i8
  store i8 %67, ptr %6, align 1, !tbaa !12
  br label %68

68:                                               ; preds = %64
  br label %69

69:                                               ; preds = %68
  br label %70

70:                                               ; preds = %69
  store i64 -1, ptr %5, align 8, !tbaa !8
  br label %76

71:                                               ; No predecessors!
  br label %72

72:                                               ; preds = %71
  br label %73

73:                                               ; preds = %72
  br label %74

74:                                               ; preds = %73
  br label %75

75:                                               ; preds = %74, %51
  br label %76

76:                                               ; preds = %75, %70, %46, %24
  %77 = load i8, ptr %6, align 1, !tbaa !12, !range !14, !noundef !15
  %78 = trunc i8 %77 to i1
  %79 = xor i1 %78, true
  %80 = xor i1 %79, true
  %81 = zext i1 %80 to i32
  %82 = sext i32 %81 to i64
  %83 = call i64 @llvm.expect.i64(i64 %82, i64 0)
  %84 = icmp ne i64 %83, 0
  br i1 %84, label %85, label %87

85:                                               ; preds = %76
  %86 = call i32 @H5E_dump_api_stack()
  br label %87

87:                                               ; preds = %85, %76
  %88 = load i64, ptr %5, align 8, !tbaa !8
  call void @llvm.lifetime.end.p0(i64 1, ptr %6) #6
  call void @llvm.lifetime.end.p0(i64 8, ptr %5) #6
  ret i64 %88
}