; Function Attrs: nounwind uwtable
define range(i64 -1, -9223372036854775808) i64 @H5VLwrap_register(ptr noundef %0, i32 noundef %1) local_unnamed_addr #0 {
  switch i32 %1, label %3 [
    i32 1, label %7
    i32 2, label %7
    i32 3, label %7
    i32 5, label %7
    i32 6, label %7
    i32 7, label %7
  ]

3:                                                ; preds = %2
  %4 = load i64, ptr @H5E_VOL_g, align 8, !tbaa !11
  %5 = load i64, ptr @H5E_BADRANGE_g, align 8, !tbaa !11
  %6 = tail call i32 (ptr, ptr, i32, i64, i64, ptr, ...) @H5E_printf_stack(ptr noundef nonnull @.str, ptr noundef nonnull @__func__.H5VLwrap_register, i32 noundef 591, i64 noundef %4, i64 noundef %5, ptr noundef nonnull @.str.23) #4
  br label %20

7:                                                ; preds = %2, %2, %2, %2, %2, %2
  %8 = icmp eq ptr %0, null
  br i1 %8, label %9, label %13

9:                                                ; preds = %7
  %10 = load i64, ptr @H5E_VOL_g, align 8, !tbaa !11
  %11 = load i64, ptr @H5E_BADVALUE_g, align 8, !tbaa !11
  %12 = tail call i32 (ptr, ptr, i32, i64, i64, ptr, ...) @H5E_printf_stack(ptr noundef nonnull @.str, ptr noundef nonnull @__func__.H5VLwrap_register, i32 noundef 594, i64 noundef %10, i64 noundef %11, ptr noundef nonnull @.str.24) #4
  br label %20

13:                                               ; preds = %7
  %14 = tail call i64 @H5VL_wrap_register(i32 noundef %1, ptr noundef nonnull %0, i1 noundef zeroext true) #4
  %15 = icmp slt i64 %14, 0
  br i1 %15, label %16, label %22

16:                                               ; preds = %13
  %17 = load i64, ptr @H5E_VOL_g, align 8, !tbaa !11
  %18 = load i64, ptr @H5E_CANTREGISTER_g, align 8, !tbaa !11
  %19 = tail call i32 (ptr, ptr, i32, i64, i64, ptr, ...) @H5E_printf_stack(ptr noundef nonnull @.str, ptr noundef nonnull @__func__.H5VLwrap_register, i32 noundef 598, i64 noundef %17, i64 noundef %18, ptr noundef nonnull @.str.25) #4
  br label %20

20:                                               ; preds = %3, %9, %16
  %21 = tail call i32 @H5E_dump_api_stack() #4
  br label %22

22:                                               ; preds = %13, %20
  %.0813 = phi i64 [ -1, %20 ], [ %14, %13 ]
  ret i64 %.0813
}